target datalayout = "e-m:e-p270:32:32-p271:32:32-p272:64:64-i64:64-i128:128-f80:128-n8:16:32:64-S128"
target triple = "x86_64-pc-linux-gnu"

%struct._Py_tss_t = type { i32, i32 }

; Function Attrs: nounwind uwtable
define dso_local i32 @PyThread_tss_create(ptr noundef %0) #0 {
  %2 = alloca i32, align 4
  %3 = alloca ptr, align 8
  %4 = alloca i32, align 4
  %5 = alloca i32, align 4
  store ptr %0, ptr %3, align 8, !tbaa !192
  %6 = load ptr, ptr %3, align 8, !tbaa !192
  %7 = getelementptr inbounds nuw %struct._Py_tss_t, ptr %6, i32 0, i32 0
  %8 = load i32, ptr %7, align 4, !tbaa !194
  %9 = icmp ne i32 %8, 0
  br i1 %9, label %10, label %11

10:                                               ; preds = %1
  store i32 0, ptr %2, align 4
  br label %22

11:                                               ; preds = %1
  call void @llvm.lifetime.start.p0(i64 4, ptr %4) #11
  %12 = load ptr, ptr %3, align 8, !tbaa !192
  %13 = getelementptr inbounds nuw %struct._Py_tss_t, ptr %12, i32 0, i32 1
  %14 = call i32 @pthread_key_create(ptr noundef %13, ptr noundef null) #11
  store i32 %14, ptr %4, align 4, !tbaa !175
  %15 = load i32, ptr %4, align 4, !tbaa !175
  %16 = icmp ne i32 %15, 0
  br i1 %16, label %17, label %18

17:                                               ; preds = %11
  store i32 -1, ptr %2, align 4
  store i32 1, ptr %5, align 4
  br label %21

18:                                               ; preds = %11
  %19 = load ptr, ptr %3, align 8, !tbaa !192
  %20 = getelementptr inbounds nuw %struct._Py_tss_t, ptr %19, i32 0, i32 0
  store i32 1, ptr %20, align 4, !tbaa !194
  store i32 0, ptr %2, align 4
  store i32 1, ptr %5, align 4
  br label %21

21:                                               ; preds = %18, %17
  call void @llvm.lifetime.end.p0(i64 4, ptr %4) #11
  br label %22

22:                                               ; preds = %21, %10
  %23 = load i32, ptr %2, align 4
  ret i32 %23
}