; Function Attrs: nounwind uwtable
define dso_local range(i32 -1, 1) i32 @PyThread_tss_create(ptr noundef %0) local_unnamed_addr #0 {
  %2 = load i32, ptr %0, align 4, !tbaa !186
  %.not = icmp eq i32 %2, 0
  br i1 %.not, label %3, label %7

3:                                                ; preds = %1
  %4 = getelementptr inbounds nuw i8, ptr %0, i64 4
  %5 = tail call i32 @pthread_key_create(ptr noundef nonnull %4, ptr noundef null) #13
  %.not4 = icmp eq i32 %5, 0
  br i1 %.not4, label %6, label %7

6:                                                ; preds = %3
  store i32 1, ptr %0, align 4, !tbaa !186
  br label %7

7:                                                ; preds = %6, %3, %1
  %.0 = phi i32 [ 0, %1 ], [ 0, %6 ], [ -1, %3 ]
  ret i32 %.0
}